; Function Attrs: mustprogress uwtable
define internal void @_ZZ22test_submodule_buffersRN8pybind117module_EEN14BufferReadOnly15get_buffer_infoEv(ptr dead_on_unwind noalias writable sret(%"struct.pybind11::buffer_info") align 8 %0, ptr noundef nonnull align 1 dereferenceable(1) %1) #5 align 2 personality ptr @__gxx_personality_v0 {
  %3 = alloca %"class.std::__cxx11::basic_string", align 8
  call void @llvm.lifetime.start.p0(i64 32, ptr nonnull %3) #35
  %4 = getelementptr inbounds nuw i8, ptr %3, i64 16
  store ptr %4, ptr %3, align 8, !tbaa !74, !alias.scope !528
  call void @_ZNSt7__cxx1112basic_stringIcSt11char_traitsIcESaIcEE12_M_constructEmc(ptr noundef nonnull align 8 dereferenceable(32) %3, i64 noundef 1, i8 noundef signext 66)
  invoke void @_ZN8pybind1111buffer_infoC2EPvlRKNSt7__cxx1112basic_stringIcSt11char_traitsIcESaIcEEElb(ptr noundef nonnull align 8 dereferenceable(129) %0, ptr noundef nonnull %1, i64 noundef 1, ptr noundef nonnull align 8 dereferenceable(32) %3, i64 noundef 1, i1 noundef zeroext true)
          to label %5 unwind label %13

5:                                                ; preds = %2
  %6 = load ptr, ptr %3, align 8, !tbaa !11
  %7 = icmp eq ptr %6, %4
  br i1 %7, label %_ZNKSt7__cxx1112basic_stringIcSt11char_traitsIcESaIcEE11_M_is_localEv.exit.thread.i.i.i, label %_ZNKSt7__cxx1112basic_stringIcSt11char_traitsIcESaIcEE11_M_is_localEv.exit.i.i.i

_ZNKSt7__cxx1112basic_stringIcSt11char_traitsIcESaIcEE11_M_is_localEv.exit.thread.i.i.i: ; preds = %5
  %8 = getelementptr inbounds nuw i8, ptr %3, i64 8
  %9 = load i64, ptr %8, align 8, !tbaa !78
  %10 = icmp ult i64 %9, 16
  call void @llvm.assume(i1 %10)
  br label %_ZN8pybind1111buffer_infoC2IhEEPKT_lb.exit

_ZNKSt7__cxx1112basic_stringIcSt11char_traitsIcESaIcEE11_M_is_localEv.exit.i.i.i: ; preds = %5
  %11 = load i64, ptr %4, align 8, !tbaa !79
  %12 = add i64 %11, 1
  call void @_ZdlPvm(ptr noundef %6, i64 noundef %12) #38
  br label %_ZN8pybind1111buffer_infoC2IhEEPKT_lb.exit

13:                                               ; preds = %2
  %14 = landingpad { ptr, i32 }
          cleanup
  %15 = load ptr, ptr %3, align 8, !tbaa !11
  %16 = icmp eq ptr %15, %4
  br i1 %16, label %_ZNKSt7__cxx1112basic_stringIcSt11char_traitsIcESaIcEE11_M_is_localEv.exit.thread.i.i6.i, label %_ZNKSt7__cxx1112basic_stringIcSt11char_traitsIcESaIcEE11_M_is_localEv.exit.i.i5.i

_ZNKSt7__cxx1112basic_stringIcSt11char_traitsIcESaIcEE11_M_is_localEv.exit.thread.i.i6.i: ; preds = %13
  %17 = getelementptr inbounds nuw i8, ptr %3, i64 8
  %18 = load i64, ptr %17, align 8, !tbaa !78
  %19 = icmp ult i64 %18, 16
  call void @llvm.assume(i1 %19)
  br label %_ZNSt7__cxx1112basic_stringIcSt11char_traitsIcESaIcEED2Ev.exit7.i

_ZNKSt7__cxx1112basic_stringIcSt11char_traitsIcESaIcEE11_M_is_localEv.exit.i.i5.i: ; preds = %13
  %20 = load i64, ptr %4, align 8, !tbaa !79
  %21 = add i64 %20, 1
  call void @_ZdlPvm(ptr noundef %15, i64 noundef %21) #38
  br label %_ZNSt7__cxx1112basic_stringIcSt11char_traitsIcESaIcEED2Ev.exit7.i

_ZNSt7__cxx1112basic_stringIcSt11char_traitsIcESaIcEED2Ev.exit7.i: ; preds = %_ZNKSt7__cxx1112basic_stringIcSt11char_traitsIcESaIcEE11_M_is_localEv.exit.i.i5.i, %_ZNKSt7__cxx1112basic_stringIcSt11char_traitsIcESaIcEE11_M_is_localEv.exit.thread.i.i6.i
  call void @llvm.lifetime.end.p0(i64 32, ptr nonnull %3) #35
  resume { ptr, i32 } %14

_ZN8pybind1111buffer_infoC2IhEEPKT_lb.exit:       ; preds = %_ZNKSt7__cxx1112basic_stringIcSt11char_traitsIcESaIcEE11_M_is_localEv.exit.thread.i.i.i, %_ZNKSt7__cxx1112basic_stringIcSt11char_traitsIcESaIcEE11_M_is_localEv.exit.i.i.i
  call void @llvm.lifetime.end.p0(i64 32, ptr nonnull %3) #35
  ret void
}